; Function Attrs: mustprogress nofree norecurse nosync nounwind willreturn memory(argmem: readwrite) uwtable
define dso_local void @_ZN11btRigidBody12applyGravityEv(ptr nocapture noundef nonnull align 8 dereferenceable(744) %this) local_unnamed_addr #6 align 2 {
entry:
  %m_collisionFlags.i = getelementptr inbounds i8, ptr %this, i64 224
  %0 = load i32, ptr %m_collisionFlags.i, align 8
  %and.i = and i32 %0, 3
  %cmp.i.not = icmp eq i32 %and.i, 0
  br i1 %cmp.i.not, label %if.end, label %return

if.end:                                           ; preds = %entry
  %m_gravity = getelementptr inbounds i8, ptr %this, i64 472
  %m_linearFactor.i = getelementptr inbounds i8, ptr %this, i64 456
  %arrayidx11.i.i = getelementptr inbounds i8, ptr %this, i64 480
  %1 = load float, ptr %arrayidx11.i.i, align 8
  %arrayidx13.i.i = getelementptr inbounds i8, ptr %this, i64 464
  %2 = load float, ptr %arrayidx13.i.i, align 8
  %mul14.i.i = fmul float %1, %2
  %m_totalForce.i = getelementptr inbounds i8, ptr %this, i64 520
  %3 = load <2 x float>, ptr %m_gravity, align 8
  %4 = load <2 x float>, ptr %m_linearFactor.i, align 8
  %5 = fmul <2 x float> %3, %4
  %6 = load <2 x float>, ptr %m_totalForce.i, align 8
  %7 = fadd <2 x float> %5, %6
  store <2 x float> %7, ptr %m_totalForce.i, align 8
  %arrayidx12.i.i = getelementptr inbounds i8, ptr %this, i64 528
  %8 = load float, ptr %arrayidx12.i.i, align 8
  %add13.i.i = fadd float %mul14.i.i, %8
  store float %add13.i.i, ptr %arrayidx12.i.i, align 8
  br label %return

return:                                           ; preds = %entry, %if.end
  ret void
}